(dp0
S'SDM_name'
p1
S'14B-396.sb29809142.eb30014592.56987.35765355324'
p2
sS'gmt_time'
p3
S'Sat, 01 Dec 2018 08:10:25 +0000'
p4
sS'time_list'
p5
(lp6
(dp7
S'status'
p8
S'start'
p9
sS'pipestate'
p10
S'startup'
p11
sS'time'
p12
F1543623866.241227
sa(dp13
g8
S'end'
p14
sg10
g11
sg12
F1543623866.539545
sa(dp15
g8
g9
sg10
S'import'
p16
sg12
F1543623866.698482
sa(dp17
g8
g14
sg10
g16
sg12
F1543625273.936937
sa(dp18
g8
g9
sg10
S'hanning'
p19
sg12
F1543625387.562147
sa(dp20
g8
g14
sg10
g19
sg12
F1543625387.562521
sa(dp21
g8
g9
sg10
S'msinfo'
p22
sg12
F1543625387.702616
sa(dp23
g8
g14
sg10
g22
sg12
F1543625472.385365
sa(dp24
g8
g9
sg10
S'flagall'
p25
sg12
F1543625848.702875
sa(dp26
g8
g14
sg10
g25
sg12
F1543630012.526027
sa(dp27
g8
g9
sg10
g22
sg12
F1543630635.323339
sa(dp28
g8
g14
sg10
g22
sg12
F1543630644.738198
sa(dp29
g8
g9
sg10
S'calprep'
p30
sg12
F1543630669.758994
sa(dp31
g8
g14
sg10
g30
sg12
F1543630676.857175
sa(dp32
g8
g9
sg10
S'priorcals'
p33
sg12
F1543630688.984186
sa(dp34
g8
g14
sg10
g33
sg12
F1543630722.922923
sa(dp35
g8
g9
sg10
S'testBPdcals'
p36
sg12
F1543630722.983874
sa(dp37
g8
g14
sg10
g36
sg12
F1543632967.527193
sa(dp38
g8
g9
sg10
S'flag_baddeformatters'
p39
sg12
F1543632967.680573
sa(dp40
g8
g14
sg10
g39
sg12
F1543632982.82692
sa(dp41
g8
g9
sg10
S'flag_baddeformattersphase'
p42
sg12
F1543632982.900232
sa(dp43
g8
g14
sg10
g42
sg12
F1543632998.125298
sa(dp44
g8
g9
sg10
S'checkflag'
p45
sg12
F1543632999.014442
sa(dp46
g8
g14
sg10
g45
sg12
F1543633437.254291
sa(dp47
g8
g9
sg10
S'semiFinalBPdcals1'
p48
sg12
F1543633437.382516
sa(dp49
g8
g14
sg10
g48
sg12
F1543635406.680863
sa(dp50
g8
g9
sg10
S'checkflag_semiFinal'
p51
sg12
F1543635407.008833
sa(dp52
g8
g14
sg10
g51
sg12
F1543636301.106872
sa(dp53
g8
g9
sg10
S'semiFinalBPdcals2'
p54
sg12
F1543636892.848085
sa(dp55
g8
g14
sg10
g54
sg12
F1543638850.534069
sa(dp56
g8
g9
sg10
S'solint'
p57
sg12
F1543639380.637467
sa(dp58
g8
g14
sg10
g57
sg12
F1543639407.284267
sa(dp59
g8
g9
sg10
S'testgains'
p60
sg12
F1543639407.413221
sa(dp61
g8
g14
sg10
g60
sg12
F1543639430.883371
sa(dp62
g8
g9
sg10
S'fluxgains'
p63
sg12
F1543639431.0944
sa(dp64
g8
g14
sg10
g63
sg12
F1543639451.073075
sa(dp65
g8
g9
sg10
S'fluxboot'
p66
sg12
F1543639451.159982
sa(dp67
g8
g14
sg10
g66
sg12
F1543639525.515754
sa(dp68
g8
g9
sg10
S'finalcals'
p69
sg12
F1543639525.657589
sa(dp70
g8
g14
sg10
g69
sg12
F1543641636.057051
sa(dp71
g8
g9
sg10
S'applycals'
p72
sg12
F1543641636.509601
sa(dp73
g8
g14
sg10
g72
sg12
F1543645896.507984
sa(dp74
g8
g9
sg10
g45
sg12
F1543645896.711955
sa(dp75
g8
g14
sg10
S'targetflag'
p76
sg12
F1543647684.524577
sa(dp77
g8
g9
sg10
g45
sg12
F1543649671.390213
sa(dp78
g8
g14
sg10
g76
sg12
F1543650310.802885
sa(dp79
g8
g9
sg10
S'plotsummary'
p80
sg12
F1543650311.149698
sa(dp81
g8
g14
sg10
g80
sg12
F1543651825.535048
sa(dp82
g8
g9
sg10
S'filecollect'
p83
sg12
F1543651825.899908
sasS'ms_size'
p84
F102.48881357163191
sS'version'
p85
S'1.4.0'
p86
sS'svnrevision'
p87
S'11nnn'
p88
s.